target datalayout = "e-m:e-p270:32:32-p271:32:32-p272:64:64-i64:64-i128:128-f80:128-n8:16:32:64-S128"
target triple = "x86_64-pc-linux-gnu"

%struct.pmix_pointer_array_t = type { %struct.pmix_object_t, i32, i32, i32, i32, i32, ptr, ptr }
%struct.pmix_object_t = type { %union.pthread_mutex_t, ptr, i32, %struct.pmix_tma }
%union.pthread_mutex_t = type { %struct.__pthread_mutex_s }
%struct.__pthread_mutex_s = type { i32, i32, i32, i32, i32, i16, i16, %struct.__pthread_internal_list }
%struct.__pthread_internal_list = type { ptr, ptr }
%struct.pmix_tma = type { ptr, ptr, ptr, ptr, ptr, ptr, ptr, ptr }

; Function Attrs: nounwind uwtable
define i32 @pmix_pointer_array_add(ptr noundef %0, ptr noundef %1) #0 {
  %3 = alloca i32, align 4
  %4 = alloca ptr, align 8
  %5 = alloca ptr, align 8
  %6 = alloca i32, align 4
  %7 = alloca i32, align 4
  %8 = alloca i32, align 4
  %9 = alloca i32, align 4
  %10 = alloca i32, align 4
  %11 = alloca i32, align 4
  %12 = alloca i32, align 4
  %13 = alloca i32, align 4
  %14 = alloca i64, align 8
  store ptr %0, ptr %4, align 8, !tbaa !3
  store ptr %1, ptr %5, align 8, !tbaa !30
  call void @llvm.lifetime.start.p0(i64 4, ptr %6) #7
  %15 = load ptr, ptr %4, align 8, !tbaa !3
  %16 = getelementptr inbounds nuw %struct.pmix_pointer_array_t, ptr %15, i32 0, i32 3
  %17 = load i32, ptr %16, align 8, !tbaa !16
  %18 = add nsw i32 %17, 1
  store i32 %18, ptr %6, align 4, !tbaa !23
  %19 = load ptr, ptr %4, align 8, !tbaa !3
  %20 = getelementptr inbounds nuw %struct.pmix_pointer_array_t, ptr %19, i32 0, i32 2
  %21 = load i32, ptr %20, align 4, !tbaa !15
  %22 = icmp eq i32 %21, 0
  br i1 %22, label %23, label %29

23:                                               ; preds = %2
  %24 = load ptr, ptr %4, align 8, !tbaa !3
  %25 = load i32, ptr %6, align 4, !tbaa !23
  %26 = call zeroext i1 @grow_table(ptr noundef %24, i32 noundef %25)
  br i1 %26, label %28, label %27

27:                                               ; preds = %23
  store i32 -29, ptr %3, align 4
  store i32 1, ptr %7, align 4
  br label %195

28:                                               ; preds = %23
  br label %29

29:                                               ; preds = %28, %2
  %30 = load ptr, ptr %4, align 8, !tbaa !3
  %31 = getelementptr inbounds nuw %struct.pmix_pointer_array_t, ptr %30, i32 0, i32 1
  %32 = load i32, ptr %31, align 8, !tbaa !8
  store i32 %32, ptr %6, align 4, !tbaa !23
  %33 = load ptr, ptr %5, align 8, !tbaa !30
  %34 = load ptr, ptr %4, align 8, !tbaa !3
  %35 = getelementptr inbounds nuw %struct.pmix_pointer_array_t, ptr %34, i32 0, i32 7
  %36 = load ptr, ptr %35, align 8, !tbaa !20
  %37 = load i32, ptr %6, align 4, !tbaa !23
  %38 = sext i32 %37 to i64
  %39 = getelementptr inbounds ptr, ptr %36, i64 %38
  store ptr %33, ptr %39, align 8, !tbaa !30
  %40 = load ptr, ptr %4, align 8, !tbaa !3
  %41 = getelementptr inbounds nuw %struct.pmix_pointer_array_t, ptr %40, i32 0, i32 2
  %42 = load i32, ptr %41, align 4, !tbaa !15
  %43 = add nsw i32 %42, -1
  store i32 %43, ptr %41, align 4, !tbaa !15
  br label %44

44:                                               ; preds = %29
  call void @llvm.lifetime.start.p0(i64 4, ptr %8) #7
  call void @llvm.lifetime.start.p0(i64 4, ptr %9) #7
  br label %45

45:                                               ; preds = %44
  call void @llvm.lifetime.start.p0(i64 4, ptr %10) #7
  %46 = load i32, ptr %6, align 4, !tbaa !23
  store i32 %46, ptr %10, align 4, !tbaa !23
  %47 = load i32, ptr %10, align 4, !tbaa !23
  %48 = zext i32 %47 to i64
  %49 = udiv i64 %48, 64
  %50 = trunc i64 %49 to i32
  store i32 %50, ptr %8, align 4, !tbaa !23
  %51 = load i32, ptr %10, align 4, !tbaa !23
  %52 = zext i32 %51 to i64
  %53 = urem i64 %52, 64
  %54 = trunc i64 %53 to i32
  store i32 %54, ptr %9, align 4, !tbaa !23
  call void @llvm.lifetime.end.p0(i64 4, ptr %10) #7
  br label %55

55:                                               ; preds = %45
  br label %56

56:                                               ; preds = %55
  %57 = load i32, ptr %9, align 4, !tbaa !23
  %58 = zext i32 %57 to i64
  %59 = shl i64 1, %58
  %60 = load ptr, ptr %4, align 8, !tbaa !3
  %61 = getelementptr inbounds nuw %struct.pmix_pointer_array_t, ptr %60, i32 0, i32 6
  %62 = load ptr, ptr %61, align 8, !tbaa !19
  %63 = load i32, ptr %8, align 4, !tbaa !23
  %64 = zext i32 %63 to i64
  %65 = getelementptr inbounds nuw i64, ptr %62, i64 %64
  %66 = load i64, ptr %65, align 8, !tbaa !24
  %67 = or i64 %66, %59
  store i64 %67, ptr %65, align 8, !tbaa !24
  call void @llvm.lifetime.end.p0(i64 4, ptr %9) #7
  call void @llvm.lifetime.end.p0(i64 4, ptr %8) #7
  br label %68

68:                                               ; preds = %56
  br label %69

69:                                               ; preds = %68
  %70 = load ptr, ptr %4, align 8, !tbaa !3
  %71 = getelementptr inbounds nuw %struct.pmix_pointer_array_t, ptr %70, i32 0, i32 2
  %72 = load i32, ptr %71, align 4, !tbaa !15
  %73 = icmp sgt i32 %72, 0
  br i1 %73, label %74, label %187

74:                                               ; preds = %69
  br label %75

75:                                               ; preds = %74
  call void @llvm.lifetime.start.p0(i64 4, ptr %11) #7
  call void @llvm.lifetime.start.p0(i64 4, ptr %12) #7
  %76 = load ptr, ptr %4, align 8, !tbaa !3
  %77 = getelementptr inbounds nuw %struct.pmix_pointer_array_t, ptr %76, i32 0, i32 2
  %78 = load i32, ptr %77, align 4, !tbaa !15
  %79 = icmp eq i32 0, %78
  br i1 %79, label %80, label %86

80:                                               ; preds = %75
  %81 = load ptr, ptr %4, align 8, !tbaa !3
  %82 = getelementptr inbounds nuw %struct.pmix_pointer_array_t, ptr %81, i32 0, i32 3
  %83 = load i32, ptr %82, align 8, !tbaa !16
  %84 = load ptr, ptr %4, align 8, !tbaa !3
  %85 = getelementptr inbounds nuw %struct.pmix_pointer_array_t, ptr %84, i32 0, i32 1
  store i32 %83, ptr %85, align 8, !tbaa !8
  store i32 6, ptr %7, align 4
  br label %182

86:                                               ; preds = %75
  br label %87

87:                                               ; preds = %86
  call void @llvm.lifetime.start.p0(i64 4, ptr %13) #7
  %88 = load i32, ptr %6, align 4, !tbaa !23
  store i32 %88, ptr %13, align 4, !tbaa !23
  %89 = load i32, ptr %13, align 4, !tbaa !23
  %90 = zext i32 %89 to i64
  %91 = udiv i64 %90, 64
  %92 = trunc i64 %91 to i32
  store i32 %92, ptr %11, align 4, !tbaa !23
  %93 = load i32, ptr %13, align 4, !tbaa !23
  %94 = zext i32 %93 to i64
  %95 = urem i64 %94, 64
  %96 = trunc i64 %95 to i32
  store i32 %96, ptr %12, align 4, !tbaa !23
  call void @llvm.lifetime.end.p0(i64 4, ptr %13) #7
  br label %97

97:                                               ; preds = %87
  br label %98

98:                                               ; preds = %97
  br label %99

99:                                               ; preds = %109, %98
  %100 = load ptr, ptr %4, align 8, !tbaa !3
  %101 = getelementptr inbounds nuw %struct.pmix_pointer_array_t, ptr %100, i32 0, i32 6
  %102 = load ptr, ptr %101, align 8, !tbaa !19
  %103 = load i32, ptr %11, align 4, !tbaa !23
  %104 = zext i32 %103 to i64
  %105 = getelementptr inbounds nuw i64, ptr %102, i64 %104
  %106 = load i64, ptr %105, align 8, !tbaa !24
  %107 = icmp eq i64 %106, -1
  br i1 %107, label %108, label %112

108:                                              ; preds = %99
  br label %109

109:                                              ; preds = %108
  %110 = load i32, ptr %11, align 4, !tbaa !23
  %111 = add i32 %110, 1
  store i32 %111, ptr %11, align 4, !tbaa !23
  br label %99, !llvm.loop !32

112:                                              ; preds = %99
  call void @llvm.lifetime.start.p0(i64 8, ptr %14) #7
  %113 = load ptr, ptr %4, align 8, !tbaa !3
  %114 = getelementptr inbounds nuw %struct.pmix_pointer_array_t, ptr %113, i32 0, i32 6
  %115 = load ptr, ptr %114, align 8, !tbaa !19
  %116 = load i32, ptr %11, align 4, !tbaa !23
  %117 = zext i32 %116 to i64
  %118 = getelementptr inbounds nuw i64, ptr %115, i64 %117
  %119 = load i64, ptr %118, align 8, !tbaa !24
  store i64 %119, ptr %14, align 8, !tbaa !24
  store i32 0, ptr %12, align 4, !tbaa !23
  %120 = load i64, ptr %14, align 8, !tbaa !24
  %121 = and i64 %120, 4294967295
  %122 = icmp eq i64 4294967295, %121
  br i1 %122, label %123, label %128

123:                                              ; preds = %112
  %124 = load i64, ptr %14, align 8, !tbaa !24
  %125 = lshr i64 %124, 32
  store i64 %125, ptr %14, align 8, !tbaa !24
  %126 = load i32, ptr %12, align 4, !tbaa !23
  %127 = add i32 %126, 32
  store i32 %127, ptr %12, align 4, !tbaa !23
  br label %128

128:                                              ; preds = %123, %112
  %129 = load i64, ptr %14, align 8, !tbaa !24
  %130 = and i64 %129, 65535
  %131 = icmp eq i64 65535, %130
  br i1 %131, label %132, label %137

132:                                              ; preds = %128
  %133 = load i64, ptr %14, align 8, !tbaa !24
  %134 = lshr i64 %133, 16
  store i64 %134, ptr %14, align 8, !tbaa !24
  %135 = load i32, ptr %12, align 4, !tbaa !23
  %136 = add i32 %135, 16
  store i32 %136, ptr %12, align 4, !tbaa !23
  br label %137

137:                                              ; preds = %132, %128
  %138 = load i64, ptr %14, align 8, !tbaa !24
  %139 = and i64 %138, 255
  %140 = icmp eq i64 255, %139
  br i1 %140, label %141, label %146

141:                                              ; preds = %137
  %142 = load i64, ptr %14, align 8, !tbaa !24
  %143 = lshr i64 %142, 8
  store i64 %143, ptr %14, align 8, !tbaa !24
  %144 = load i32, ptr %12, align 4, !tbaa !23
  %145 = add i32 %144, 8
  store i32 %145, ptr %12, align 4, !tbaa !23
  br label %146

146:                                              ; preds = %141, %137
  %147 = load i64, ptr %14, align 8, !tbaa !24
  %148 = and i64 %147, 15
  %149 = icmp eq i64 15, %148
  br i1 %149, label %150, label %155

150:                                              ; preds = %146
  %151 = load i64, ptr %14, align 8, !tbaa !24
  %152 = lshr i64 %151, 4
  store i64 %152, ptr %14, align 8, !tbaa !24
  %153 = load i32, ptr %12, align 4, !tbaa !23
  %154 = add i32 %153, 4
  store i32 %154, ptr %12, align 4, !tbaa !23
  br label %155

155:                                              ; preds = %150, %146
  %156 = load i64, ptr %14, align 8, !tbaa !24
  %157 = and i64 %156, 3
  %158 = icmp eq i64 3, %157
  br i1 %158, label %159, label %164

159:                                              ; preds = %155
  %160 = load i64, ptr %14, align 8, !tbaa !24
  %161 = lshr i64 %160, 2
  store i64 %161, ptr %14, align 8, !tbaa !24
  %162 = load i32, ptr %12, align 4, !tbaa !23
  %163 = add i32 %162, 2
  store i32 %163, ptr %12, align 4, !tbaa !23
  br label %164

164:                                              ; preds = %159, %155
  %165 = load i64, ptr %14, align 8, !tbaa !24
  %166 = and i64 %165, 1
  %167 = icmp eq i64 1, %166
  br i1 %167, label %168, label %171

168:                                              ; preds = %164
  %169 = load i32, ptr %12, align 4, !tbaa !23
  %170 = add i32 %169, 1
  store i32 %170, ptr %12, align 4, !tbaa !23
  br label %171

171:                                              ; preds = %168, %164
  %172 = load i32, ptr %11, align 4, !tbaa !23
  %173 = mul i32 %172, 8
  %174 = zext i32 %173 to i64
  %175 = mul i64 %174, 8
  %176 = load i32, ptr %12, align 4, !tbaa !23
  %177 = zext i32 %176 to i64
  %178 = add i64 %175, %177
  %179 = trunc i64 %178 to i32
  %180 = load ptr, ptr %4, align 8, !tbaa !3
  %181 = getelementptr inbounds nuw %struct.pmix_pointer_array_t, ptr %180, i32 0, i32 1
  store i32 %179, ptr %181, align 8, !tbaa !8
  call void @llvm.lifetime.end.p0(i64 8, ptr %14) #7
  store i32 0, ptr %7, align 4
  br label %182

182:                                              ; preds = %171, %80
  call void @llvm.lifetime.end.p0(i64 4, ptr %12) #7
  call void @llvm.lifetime.end.p0(i64 4, ptr %11) #7
  %183 = load i32, ptr %7, align 4
  switch i32 %183, label %197 [
    i32 0, label %184
    i32 6, label %186
  ]

184:                                              ; preds = %182
  br label %185

185:                                              ; preds = %184
  br label %186

186:                                              ; preds = %185, %182
  br label %193

187:                                              ; preds = %69
  %188 = load ptr, ptr %4, align 8, !tbaa !3
  %189 = getelementptr inbounds nuw %struct.pmix_pointer_array_t, ptr %188, i32 0, i32 3
  %190 = load i32, ptr %189, align 8, !tbaa !16
  %191 = load ptr, ptr %4, align 8, !tbaa !3
  %192 = getelementptr inbounds nuw %struct.pmix_pointer_array_t, ptr %191, i32 0, i32 1
  store i32 %190, ptr %192, align 8, !tbaa !8
  br label %193

193:                                              ; preds = %187, %186
  %194 = load i32, ptr %6, align 4, !tbaa !23
  store i32 %194, ptr %3, align 4
  store i32 1, ptr %7, align 4
  br label %195

195:                                              ; preds = %193, %27
  call void @llvm.lifetime.end.p0(i64 4, ptr %6) #7
  %196 = load i32, ptr %3, align 4
  ret i32 %196

197:                                              ; preds = %182
  unreachable
}