; Function Attrs: nounwind uwtable
define i32 @pmix_pointer_array_add(ptr noundef %0, ptr noundef %1) local_unnamed_addr #1 {
  %3 = getelementptr inbounds nuw i8, ptr %0, i64 128
  %4 = getelementptr inbounds nuw i8, ptr %0, i64 124
  %5 = load i32, ptr %4, align 4, !tbaa !13
  %6 = icmp eq i32 %5, 0
  br i1 %6, label %7, label %11

7:                                                ; preds = %2
  %8 = load i32, ptr %3, align 8, !tbaa !14
  %9 = add nsw i32 %8, 1
  %10 = tail call fastcc zeroext i1 @grow_table(ptr noundef nonnull %0, i32 noundef %9)
  br i1 %10, label %._crit_edge, label %62

._crit_edge:                                      ; preds = %7
  %.pre = load i32, ptr %4, align 4, !tbaa !13
  br label %11

11:                                               ; preds = %._crit_edge, %2
  %12 = phi i32 [ %.pre, %._crit_edge ], [ %5, %2 ]
  %13 = getelementptr inbounds nuw i8, ptr %0, i64 120
  %14 = load i32, ptr %13, align 8, !tbaa !3
  %15 = getelementptr inbounds nuw i8, ptr %0, i64 152
  %16 = load ptr, ptr %15, align 8, !tbaa !20
  %17 = sext i32 %14 to i64
  %18 = getelementptr inbounds ptr, ptr %16, i64 %17
  store ptr %1, ptr %18, align 8, !tbaa !22
  %19 = add nsw i32 %12, -1
  store i32 %19, ptr %4, align 4, !tbaa !13
  %20 = lshr i32 %14, 6
  %21 = and i32 %14, 63
  %22 = zext nneg i32 %21 to i64
  %23 = shl nuw i64 1, %22
  %24 = getelementptr inbounds nuw i8, ptr %0, i64 144
  %25 = load ptr, ptr %24, align 8, !tbaa !18
  %26 = zext nneg i32 %20 to i64
  %27 = getelementptr inbounds nuw i64, ptr %25, i64 %26
  %28 = load i64, ptr %27, align 8, !tbaa !23
  %29 = or i64 %28, %23
  store i64 %29, ptr %27, align 8, !tbaa !23
  %30 = icmp sgt i32 %12, 1
  br i1 %30, label %.preheader, label %60

.preheader:                                       ; preds = %11, %.preheader
  %.056 = phi i32 [ %35, %.preheader ], [ %20, %11 ]
  %31 = zext i32 %.056 to i64
  %32 = getelementptr inbounds nuw i64, ptr %25, i64 %31
  %33 = load i64, ptr %32, align 8, !tbaa !23
  %34 = icmp eq i64 %33, -1
  %35 = add i32 %.056, 1
  br i1 %34, label %.preheader, label %36, !llvm.loop !25

36:                                               ; preds = %.preheader
  %37 = and i64 %33, 4294967295
  %38 = icmp eq i64 %37, 4294967295
  %39 = lshr i64 %33, 32
  %spec.select = select i1 %38, i32 32, i32 0
  %spec.select58 = select i1 %38, i64 %39, i64 %33
  %40 = and i64 %spec.select58, 65535
  %41 = icmp eq i64 %40, 65535
  %42 = lshr i64 %spec.select58, 16
  %43 = or disjoint i32 %spec.select, 16
  %.152 = select i1 %41, i32 %43, i32 %spec.select
  %.1 = select i1 %41, i64 %42, i64 %spec.select58
  %44 = and i64 %.1, 255
  %45 = icmp eq i64 %44, 255
  %46 = lshr i64 %.1, 8
  %47 = or disjoint i32 %.152, 8
  %.253 = select i1 %45, i32 %47, i32 %.152
  %.2 = select i1 %45, i64 %46, i64 %.1
  %48 = and i64 %.2, 15
  %49 = icmp eq i64 %48, 15
  %50 = lshr i64 %.2, 4
  %51 = or disjoint i32 %.253, 4
  %.354 = select i1 %49, i32 %51, i32 %.253
  %.3 = select i1 %49, i64 %50, i64 %.2
  %52 = and i64 %.3, 3
  %53 = icmp eq i64 %52, 3
  %54 = lshr i64 %.3, 2
  %55 = add nuw nsw i32 %.354, 2
  %.455 = select i1 %53, i32 %55, i32 %.354
  %.4 = select i1 %53, i64 %54, i64 %.3
  %56 = trunc i64 %.4 to i32
  %57 = and i32 %56, 1
  %58 = shl i32 %.056, 6
  %.5 = add i32 %.455, %58
  %59 = add i32 %.5, %57
  br label %.sink.split

60:                                               ; preds = %11
  %61 = load i32, ptr %3, align 8, !tbaa !14
  br label %.sink.split

.sink.split:                                      ; preds = %36, %60
  %.sink = phi i32 [ %61, %60 ], [ %59, %36 ]
  store i32 %.sink, ptr %13, align 8, !tbaa !3
  br label %62

62:                                               ; preds = %.sink.split, %7
  %.050 = phi i32 [ -29, %7 ], [ %14, %.sink.split ]
  ret i32 %.050
}